; ModuleID = 'source-C-CXX/15/982.c'
source_filename = "source-C-CXX/15/982.c"
target datalayout = "e-m:e-p270:32:32-p271:32:32-p272:64:64-i64:64-f80:128-n8:16:32:64-S128"
target triple = "x86_64-pc-linux-gnu"

%struct._IO_FILE = type { i32, i8*, i8*, i8*, i8*, i8*, i8*, i8*, i8*, i8*, i8*, i8*, %struct._IO_marker*, %struct._IO_FILE*, i32, i32, i64, i16, i8, [1 x i8], i8*, i64, %struct._IO_codecvt*, %struct._IO_wide_data*, %struct._IO_FILE*, i8*, i64, i32, [20 x i8] }
%struct._IO_marker = type opaque
%struct._IO_codecvt = type opaque
%struct._IO_wide_data = type opaque

@.str = private unnamed_addr constant [3 x i8] c"%d\00", align 1
@.str.1 = private unnamed_addr constant [7 x i8] c"%d%d%d\00", align 1
@.str.2 = private unnamed_addr constant [9 x i8] c"%d%d%d%d\00", align 1
@stdout = external local_unnamed_addr global %struct._IO_FILE*, align 8

; Function Attrs: nofree nounwind sspstrong uwtable
define dso_local void @main() local_unnamed_addr #0 {
  %1 = alloca i32, align 4
  %2 = bitcast i32* %1 to i8*
  call void @llvm.lifetime.start.p0i8(i64 4, i8* nonnull %2) #3
  %3 = call i32 (i8*, ...) @__isoc99_scanf(i8* getelementptr inbounds ([3 x i8], [3 x i8]* @.str, i64 0, i64 0), i32* nonnull %1)
  %4 = load i32, i32* %1, align 4, !tbaa !5
  %5 = icmp ult i32 %4, 10
  br i1 %5, label %6, label %8

6:                                                ; preds = %0
  %7 = call i32 (i8*, ...) @printf(i8* nonnull dereferenceable(1) getelementptr inbounds ([3 x i8], [3 x i8]* @.str, i64 0, i64 0), i32 %4)
  br label %52

8:                                                ; preds = %0
  %9 = add i32 %4, -10
  %10 = icmp ult i32 %9, 90
  br i1 %10, label %11, label %21

11:                                               ; preds = %8
  %12 = trunc i32 %4 to i8
  %13 = urem i8 %12, 10
  %14 = zext i8 %13 to i32
  %15 = udiv i8 %12, 10
  %16 = zext i8 %15 to i32
  %17 = load %struct._IO_FILE*, %struct._IO_FILE** @stdout, align 8, !tbaa !9
  %18 = call i32 @putc(i32 %14, %struct._IO_FILE* %17) #3
  %19 = load %struct._IO_FILE*, %struct._IO_FILE** @stdout, align 8, !tbaa !9
  %20 = call i32 @putc(i32 %16, %struct._IO_FILE* %19) #3
  br label %52

21:                                               ; preds = %8
  %22 = add i32 %4, -100
  %23 = icmp ult i32 %22, 900
  br i1 %23, label %24, label %35

24:                                               ; preds = %21
  %25 = trunc i32 %4 to i16
  %26 = urem i16 %25, 10
  %27 = zext i16 %26 to i32
  %28 = udiv i16 %25, 10
  %29 = trunc i16 %28 to i8
  %30 = urem i8 %29, 10
  %31 = zext i8 %30 to i32
  %32 = udiv i16 %25, 100
  %33 = zext i16 %32 to i32
  %34 = call i32 (i8*, ...) @printf(i8* nonnull dereferenceable(1) getelementptr inbounds ([7 x i8], [7 x i8]* @.str.1, i64 0, i64 0), i32 %27, i32 %31, i32 %33)
  br label %52

35:                                               ; preds = %21
  %36 = add i32 %4, -1000
  %37 = icmp ult i32 %36, 9000
  br i1 %37, label %38, label %52

38:                                               ; preds = %35
  %39 = trunc i32 %4 to i16
  %40 = udiv i16 %39, 10
  %41 = udiv i16 %39, 100
  %42 = trunc i16 %41 to i8
  %43 = udiv i16 %39, 1000
  %44 = zext i16 %43 to i32
  %45 = urem i8 %42, 10
  %46 = zext i8 %45 to i32
  %47 = urem i16 %40, 10
  %48 = zext i16 %47 to i32
  %49 = urem i16 %39, 10
  %50 = zext i16 %49 to i32
  %51 = call i32 (i8*, ...) @printf(i8* nonnull dereferenceable(1) getelementptr inbounds ([9 x i8], [9 x i8]* @.str.2, i64 0, i64 0), i32 %50, i32 %48, i32 %46, i32 %44)
  br label %52

52:                                               ; preds = %11, %35, %38, %24, %6
  call void @llvm.lifetime.end.p0i8(i64 4, i8* nonnull %2) #3
  ret void
}

; Function Attrs: argmemonly mustprogress nofree nosync nounwind willreturn
declare void @llvm.lifetime.start.p0i8(i64 immarg, i8* nocapture) #1

; Function Attrs: nofree nounwind
declare noundef i32 @__isoc99_scanf(i8* nocapture noundef readonly, ...) local_unnamed_addr #2

; Function Attrs: nofree nounwind
declare noundef i32 @printf(i8* nocapture noundef readonly, ...) local_unnamed_addr #2

; Function Attrs: argmemonly mustprogress nofree nosync nounwind willreturn
declare void @llvm.lifetime.end.p0i8(i64 immarg, i8* nocapture) #1

; Function Attrs: nofree nounwind
declare noundef i32 @putc(i32 noundef, %struct._IO_FILE* nocapture noundef) local_unnamed_addr #2


!llvm.module.flags = !{!0, !1, !2, !3}
!llvm.ident = !{!4}

!0 = !{i32 1, !"wchar_size", i32 4}
!1 = !{i32 7, !"PIC Level", i32 2}
!2 = !{i32 7, !"PIE Level", i32 2}
!3 = !{i32 7, !"uwtable", i32 1}
!4 = !{!"clang version 13.0.0"}
!5 = !{!6, !6, i64 0}
!6 = !{!"int", !7, i64 0}
!7 = !{!"omnipotent char", !8, i64 0}
!8 = !{!"Simple C/C++ TBAA"}
!9 = !{!10, !10, i64 0}
!10 = !{!"any pointer", !7, i64 0}
